(dp0
S'ads_slab'
p1
(dp2
S'CH3N2H2'
p3
(lp4
F61.0
aF100.7
aF200.3
aF237.0
aF259.8
aF300.0
aF405.7
aF530.1
aF697.6
aF827.5
aF964.5
aF1070.3
aF1130.5
aF1197.6
aF1353.1
aF1431.6
aF1455.5
aF1463.8
aF1496.2
aF2893.1
aF3008.2
aF3060.1
aF3298.8
aF3366.8
asS'CH3N2'
p5
(lp6
F50.0
aF70.8
aF127.4
aF166.9
aF240.3
aF288.2
aF342.9
aF601.3
aF860.8
aF1022.7
aF1119.1
aF1369.0
aF1445.8
aF1459.1
aF1605.0
aF2975.7
aF3055.2
aF3100.3
asS'CH3'
p7
(lp8
F93.1
aF185.7
aF246.8
aF387.3
aF592.0
aF598.7
aF1216.8
aF1411.5
aF1435.9
aF2954.8
aF3028.3
aF3060.8
asS'CH3N2H'
p9
(lp10
F34.1
aF85.8
aF108.5
aF141.6
aF258.5
aF345.1
aF362.6
aF548.1
aF597.7
aF968.3
aF1099.4
aF1165.7
aF1312.5
aF1436.7
aF1450.2
aF1466.1
aF1492.2
aF2926.1
aF3024.5
aF3077.9
aF3348.4
asS'CH3NH'
p11
(lp12
F123.0
aF147.2
aF280.8
aF367.3
aF386.6
aF633.9
aF1026.5
aF1078.9
aF1123.8
aF1335.1
aF1437.2
aF1472.5
aF1491.4
aF2965.3
aF3021.0
aF3040.1
aF3471.7
asS'CH3NHH'
p13
(lp14
F180.9
aF233.3
aF383.9
aF862.0
aF999.6
aF1140.4
aF1186.2
aF1376.3
aF1405.4
aF1476.6
aF1513.9
aF1663.6
aF2916.1
aF3001.0
aF3063.0
aF3293.3
aF3434.8
asS'CH3N'
p15
(lp16
F61.4
aF154.3
aF318.2
aF379.1
aF486.4
aF1066.6
aF1079.8
aF1114.7
aF1414.6
aF1455.9
aF1461.6
aF2919.7
aF2965.3
aF3000.1
asS'CH3NHNH2'
p17
(lp18
F26.6
aF56.8
aF65.4
aF124.1
aF133.9
aF210.5
aF319.2
aF403.5
aF596.3
aF805.1
aF921.3
aF1058.7
aF1124.1
aF1162.2
aF1222.7
aF1334.4
aF1433.0
aF1456.8
aF1473.8
aF1497.7
aF1611.0
aF2893.3
aF3030.3
aF3110.6
aF3275.7
aF3395.2
aF3403.5
assS'reference'
p19
(dp20
S'H2'
p21
(lp22
F59.4
aF59.5
aF4471.0
asS'H2O'
p23
(lp24
F2.6
aF24.2
aF1607.8
aF3799.9
aF3914.5
asS'CH3'
p25
(lp26
F53.8
aF79.2
aF80.3
aF647.3
aF1399.8
aF1400.2
aF3081.9
aF3264.5
aF3265.6
asS'N2'
p27
(lp28
F0.0
aF4.2
aF2423.8
asS'NH3'
p29
(lp30
F5.0
aF9.6
aF1038.1
aF1654.6
aF1656.9
aF3423.9
aF3554.8
aF3555.1
ass.